; Function Attrs: mustprogress nofree norecurse nosync nounwind willreturn memory(read, argmem: readwrite, inaccessiblemem: none) uwtable
define noundef range(i32 0, 10559488) i32 @_ZN6icu_7722UCharCharacterIterator13next32PostIncEv(ptr noundef nonnull align 8 captures(none) dereferenceable(32) %0) unnamed_addr #7 align 2 {
  %2 = getelementptr inbounds nuw i8, ptr %0, i64 12
  %3 = load i32, ptr %2, align 4, !tbaa !22
  %4 = getelementptr inbounds nuw i8, ptr %0, i64 20
  %5 = load i32, ptr %4, align 4, !tbaa !24
  %6 = icmp slt i32 %3, %5
  br i1 %6, label %7, label %29

7:                                                ; preds = %1
  %8 = getelementptr inbounds nuw i8, ptr %0, i64 24
  %9 = load ptr, ptr %8, align 8, !tbaa !6
  %10 = add nsw i32 %3, 1
  store i32 %10, ptr %2, align 4, !tbaa !22
  %11 = sext i32 %3 to i64
  %12 = getelementptr inbounds i16, ptr %9, i64 %11
  %13 = load i16, ptr %12, align 2, !tbaa !25
  %14 = zext i16 %13 to i32
  %15 = and i32 %14, 64512
  %16 = icmp ne i32 %15, 55296
  %.not = icmp eq i32 %10, %5
  %or.cond = select i1 %16, i1 true, i1 %.not
  br i1 %or.cond, label %29, label %17

17:                                               ; preds = %7
  %18 = sext i32 %10 to i64
  %19 = getelementptr inbounds i16, ptr %9, i64 %18
  %20 = load i16, ptr %19, align 2, !tbaa !25
  %21 = zext i16 %20 to i32
  %22 = and i32 %21, 64512
  %23 = icmp eq i32 %22, 56320
  br i1 %23, label %24, label %29

24:                                               ; preds = %17
  %25 = add nsw i32 %3, 2
  store i32 %25, ptr %2, align 4, !tbaa !22
  %26 = shl nuw nsw i32 %14, 10
  %27 = add nsw i32 %26, -56613888
  %28 = add nuw nsw i32 %27, %21
  br label %29

29:                                               ; preds = %1, %7, %24, %17
  %.0 = phi i32 [ %14, %7 ], [ %28, %24 ], [ %14, %17 ], [ 65535, %1 ]
  ret i32 %.0
}